(dp1
S'name'
p2
S'SPLINE01'
p3
sS'classename'
p4
S'NSplineSimple'
p5
sS'cpoints'
p6
(lp7
(lp8
F0.27552797903108656
aF0.23419969606456739
aa(lp9
F0.27776116433897663
aF0.23451888330060086
aa(lp10
F0.28057944368301985
aF0.23487977877638844
aa(lp11
F0.28318600149987111
aF0.23517216122003828
aa(lp12
F0.28563124422356406
aF0.23541046525075884
aa(lp13
F0.28793109496696406
aF0.23560294232822979
aa(lp14
F0.29061309135475233
aF0.2357887795011154
aa(lp15
F0.29599499551402891
aF0.23603672888830041
aa(lp16
F0.30022966831095882
aF0.2361149261580133
aa(lp17
F0.30394017053081207
aF0.23609895310679024
aa(lp18
F0.30651950477892964
aF0.23604134749600678
aa(lp19
F0.30757054932139732
aF0.2360069284489261
aa(lp20
F0.31027601876063138
aF0.23588914274612344
aa(lp21
F0.31233009627521219
aF0.23577159604004388
aa(lp22
F0.31525030956831407
aF0.23556259656486506
aa(lp23
F0.31770868661342888
aF0.23534840417935024
aa(lp24
F0.31996067914606069
aF0.23512139438334623
aa(lp25
F0.32180982689142562
aF0.23491289086601064
aa(lp26
F0.32502746128775356
aF0.23450233742099286
aa(lp27
F0.32868926214527949
aF0.2339608508356715
aa(lp28
F0.33279105755662086
aF0.23325953082293138
aa(lp29
F0.33611047225834351
aF0.23261786052888453
aa(lp30
F0.33939553346165013
aF0.23191676190935015
aa(lp31
F0.34207664045206687
aF0.231295282083924
aa(lp32
F0.34540206911422716
aF0.23046213044553199
aa(lp33
F0.34765771678133833
aF0.22985724285653694
aa(lp34
F0.34987253532846813
aF0.22921626962806116
aa(lp35
F0.35173970501385737
aF0.2286401135836062
aa(lp36
F0.35334383276695253
aF0.22814512488057925
aa(lp37
F0.35432850235082869
aF0.22784128354415001
aa(lp38
F0.35440446107636248
aF0.22824572217156056
aa(lp39
F0.35454487215854519
aF0.22857079548247702
aa(lp40
F0.35475116867854567
aF0.22886332763674647
aa(lp41
F0.35506859026297444
aF0.22914696315352165
aa(lp42
F0.35550361202483771
aF0.22936488465966942
aa(lp43
F0.35604308374271348
aF0.22945423675692425
aa(lp44
F0.35629890028158318
aF0.22943652892273653
aa(lp45
F0.35650941621694399
aF0.22939260552421978
aa(lp46
F0.3567878465014116
aF0.22928970181185251
aa(lp47
F0.35887567746373306
aF0.23372023952449342
aa(lp48
F0.35887295593216245
aF0.23372168390357034
aa(lp49
F0.35678590671033311
aF0.22929280517681941
aa(lp50
F0.35650747642585812
aF0.22939570888918756
aa(lp51
F0.35629696049051152
aF0.22943963228770042
aa(lp52
F0.35604114395163161
aF0.22945734012189264
aa(lp53
F0.35550167223376272
aF0.22936798802463523
aa(lp54
F0.35506665047188907
aF0.22915006651849204
aa(lp55
F0.35474922888747401
aF0.22886643100170975
aa(lp56
F0.3545429323674632
aF0.22857389884744464
aa(lp57
F0.35440252128529082
aF0.22824882553652473
aa(lp58
F0.3543265625597502
aF0.22784438690911685
aa(lp59
F0.33555097282402729
aF0.2367510468860668
aa(lp60
F0.33407016189379996
aF0.24090755753938287
aa(lp61
F0.33765189581499894
aF0.24843803391892272
aa(lp62
F0.34180840646840527
aF0.24991884484922344
aa(lp63
F0.36058102032934869
aF0.24101902900250868
aa(lp64
F0.36035481498119765
aF0.24078375995736029
aa(lp65
F0.36010079546718127
aF0.24034122472898758
aa(lp66
F0.35999594528286238
aF0.23992311161225965
aa(lp67
F0.35999933763424852
aF0.23948724890683692
aa(lp68
F0.36008255515987003
aF0.2391445877696913
aa(lp69
F0.3602816345989418
aF0.23875251373640483
aa(lp70
F0.36054315707539919
aF0.2384513129096224
aa(lp71
F0.36096913833578903
aF0.2381665704377432
aa(lp72
F0.35889187342514495
aF0.2337582620684
aa(lp73
F0.35889323343101959
aF0.23375768987392448
aa(lp74
F0.36097099929925797
aF0.23816706136023796
aa(lp75
F0.36054501803886774
aF0.2384518038321152
aa(lp76
F0.36028349556241035
aF0.23875300465889765
aa(lp77
F0.36008441612333841
aF0.2391450786921841
aa(lp78
F0.3600011985977099
aF0.23948773982933161
aa(lp79
F0.35999780624634575
aF0.23992360253475117
aa(lp80
F0.36010265643065043
aF0.24034171565148257
aa(lp81
F0.36035667594465892
aF0.240784250879855
aa(lp82
F0.36058288129283173
aF0.24101951992499862
aa(lp83
F0.35641976669724296
aF0.24461308003407778
aa(lp84
F0.35320633158456149
aF0.24738688603173997
aa(lp85
F0.3489537947012088
aF0.25105763459168201
aa(lp86
F0.34653008614140973
aF0.25314975629437469
aa(lp87
F0.34418756335618667
aF0.25517179922462419
aa(lp88
F0.34046682667611122
aF0.25838350301100876
aa(lp89
F0.33885994829962013
aF0.25952875901396449
aa(lp90
F0.33744529553230962
aF0.26015132468863372
aa(lp91
F0.33539946896676193
aF0.26057282518552599
aa(lp92
F0.33396982093699384
aF0.26057075319876133
aa(lp93
F0.3287091423419799
aF0.26009741925282082
aa(lp94
F0.32393702468273788
aF0.2595530436234631
aa(lp95
F0.31945836628406621
aF0.25894184724899821
aa(lp96
F0.31592736757916801
aF0.25839094490387859
aa(lp97
F0.31220952791965595
aF0.25774453616201065
aa(lp98
F0.30915970172753526
aF0.2571630156865497
aa(lp99
F0.30517633310236275
aF0.25633322861206714
aa(lp100
F0.3017066310672884
aF0.25554489566611654
aa(lp101
F0.29748536245000617
aF0.25450244235024166
aa(lp102
F0.29334971263038107
aF0.25339111388951496
aa(lp103
F0.29371917422708138
aF0.25286199388420422
aa(lp104
F0.29386834863891381
aF0.25216826187784697
aa(lp105
F0.29370383399593486
aF0.25142958563011619
aa(lp106
F0.29325733013629962
aF0.25085022313393612
aa(lp107
F0.29262706989721055
aF0.25051448545731614
aa(lp108
F0.29229344935371149
aF0.25045356056517537
aa(lp109
F0.29196118372107743
aF0.25045870696226041
aa(lp110
F0.29133258214933627
aF0.25065728562273326
aa(lp111
F0.29071044449633876
aF0.25123684910424293
aa(lp112
F0.29049328348498921
aF0.25173496555338964
aa(lp113
F0.29048807489806727
aF0.25256921270195376
aa(lp114
F0.28769586146575427
aF0.25164207795319044
aa(lp115
F0.28429376255929029
aF0.25041363245228804
aa(lp116
F0.28137044579397785
aF0.24926893578884474
aa(lp117
F0.27894915279205051
aF0.24825661326460841
aa(lp118
F0.27631308699768986
aF0.24708643672879099
aa(lp119
F0.27402337344895888
aF0.24601078384287656
aa(lp120
F0.2719315993718473
aF0.24497859026522359
aa(lp121
F0.26994773854867687
aF0.24395472855114189
aa(lp122
F0.2675600912088964
aF0.24266273747853112
aa(lp123
F0.26590095874662878
aF0.24172538842604116
aa(lp124
F0.26394696805968287
aF0.24057855205323189
aa(lp125
F0.26289795343858546
aF0.23994323674962895
aa(lp126
F0.2618407972570983
aF0.23896074098243916
aa(lp127
F0.26124545363190349
aF0.23784548667927044
aa(lp128
F0.2610328596944248
aF0.2368585455177202
aa(lp129
F0.26105674561375553
aF0.23592349790094116
aa(lp130
F0.26126291500876814
aF0.2350955686177669
aa(lp131
F0.26167563421128104
aF0.23426572295805093
aa(lp132
F0.26220853970397406
aF0.23360467773082
aa(lp133
F0.26311923811010152
aF0.23291410108076946
aa(lp134
F0.26424604141275765
aF0.23248796331553964
aa(lp135
F0.26506128821063751
aF0.23239468624745077
aa(lp136
F0.26562722630836849
aF0.23242610727455859
aa(lp137
F0.26905362261950744
aF0.23310667068143962
aa(lp138
F0.27115188993926825
aF0.23348838485791978
aa(lp139
F0.27334391486770321
aF0.23385895329686748
aa(lp140
F0.27552797903108656
aF0.23419969606456739
aasS'methode'
p141
(S'cubic'
p142
((I2
I0
I0
tp143
(I1
I0
I-5
tp144
ttp145
sS'role'
p146
g5
sS'nbpd'
p147
I1000
s.