(dp1
S'cpoints'
p2
(lp3
(lp4
F1
aF0
aa(lp5
F0.98496439000000002
aF0.0026312599999999998
aa(lp6
F0.97637211999999995
aF0.0041339100000000002
aa(lp7
F0.96586771000000005
aF0.0059695099999999999
aa(lp8
F0.95322001999999995
aF0.0081775000000000007
aa(lp9
F0.93972350000000004
aF0.010528620000000001
aa(lp10
F0.92476873999999998
aF0.01311901
aa(lp11
F0.90791326000000006
aF0.01598138
aa(lp12
F0.89282923999999997
aF0.01857178
aa(lp13
F0.87465914
aF0.021680700000000001
aa(lp14
F0.85315368999999996
aF0.025342529999999999
aa(lp15
F0.82445236
aF0.030199449999999999
aa(lp16
F0.79391677999999999
aF0.035332250000000003
aa(lp17
F0.76181136999999999
aF0.040690549999999999
aa(lp18
F0.72736396999999997
aF0.046395989999999998
aa(lp19
F0.69152077000000001
aF0.05228464
aa(lp20
F0.65373360000000003
aF0.058439669999999999
aa(lp21
F0.61617129999999998
aF0.064504179999999994
aa(lp22
F0.57897757999999999
aF0.070456329999999998
aa(lp23
F0.53981109999999999
aF0.076667349999999995
aa(lp24
F0.50056060999999996
aF0.082833229999999994
aa(lp25
F0.46075111000000002
aF0.089027200000000001
aa(lp26
F0.42472190999999998
aF0.094581159999999997
aa(lp27
F0.38312850999999998
aF0.1005735
aa(lp28
F0.34564030000000001
aF0.1051952
aa(lp29
F0.30865819999999999
aF0.1091143
aa(lp30
F0.27300469999999999
aF0.11133961000000001
aa(lp31
F0.23875071
aF0.112195
aa(lp32
F0.20610740999999999
aF0.11154591
aa(lp33
F0.17527598999999999
aF0.10929410000000001
aa(lp34
F0.14644661
aF0.10538839999999999
aa(lp35
F0.11979698
aF0.099832589999999999
aa(lp36
F0.095491489999999998
aF0.092689519999999997
aa(lp37
F0.073679960000000003
aF0.084080539999999995
aa(lp38
F0.05449669
aF0.07417899
aa(lp39
F0.03806023
aF0.063198039999999997
aa(lp40
F0.024471739999999999
aF0.051373639999999998
aa(lp41
F0.01381508
aF0.038944090000000001
aa(lp42
F0.00615585
aF0.026128430000000001
aa(lp43
F0.0015412900000000001
aF0.013106049999999999
aa(lp44
F0
aF0
aa(lp45
F0.00059146999999999997
aF-0.0046511800000000004
aa(lp46
F0.0018189
aF-0.0086616699999999998
aa(lp47
F0.0041946800000000001
aF-0.013226770000000001
aa(lp48
F0.0079251800000000004
aF-0.016720430000000001
aa(lp49
F0.01192381
aF-0.019535520000000001
aa(lp50
F0.01578065
aF-0.021889720000000001
aa(lp51
F0.05145313
aF-0.042679469999999997
aa(lp52
F0.054799260000000002
aF-0.04500813
aa(lp53
F0.059459680000000001
aF-0.047933400000000001
aa(lp54
F0.065000230000000006
aF-0.05113057
aa(lp55
F0.074079119999999998
aF-0.056017589999999999
aa(lp56
F0.084654259999999995
aF-0.059950709999999997
aa(lp57
F0.097679290000000002
aF-0.062573429999999999
aa(lp58
F0.12053886
aF-0.064378179999999993
aa(lp59
F0.1463129
aF-0.066280480000000003
aa(lp60
F0.17681374999999999
aF-0.068049269999999995
aa(lp61
F0.20790396
aF-0.069951020000000003
aa(lp62
F0.24161762000000001
aF-0.072031150000000002
aa(lp63
F0.27908859000000003
aF-0.074295890000000003
aa(lp64
F0.31364304999999998
aF-0.075698509999999997
aa(lp65
F0.34210476000000001
aF-0.076773620000000001
aa(lp66
F0.39532114000000002
aF-0.077203709999999995
aa(lp67
F0.42628882000000001
aF-0.076217859999999998
aa(lp68
F0.46493939000000001
aF-0.075020550000000005
aa(lp69
F0.50430940999999996
aF-0.07393421
aa(lp70
F0.54366124999999998
aF-0.072748980000000005
aa(lp71
F0.58271987999999997
aF-0.070590200000000006
aa(lp72
F0.62270493999999998
aF-0.067640749999999999
aa(lp73
F0.65766714999999998
aF-0.063895060000000004
aa(lp74
F0.69187180000000004
aF-0.059713639999999998
aa(lp75
F0.72737744999999998
aF-0.053778720000000002
aa(lp76
F0.76173840999999998
aF-0.04796023
aa(lp77
F0.78992925999999997
aF-0.042328789999999998
aa(lp78
F0.8151543
aF-0.036853129999999998
aa(lp79
F0.83591789999999999
aF-0.032106969999999999
aa(lp80
F0.85727361000000002
aF-0.026923240000000001
aa(lp81
F0.88031630000000005
aF-0.021512440000000001
aa(lp82
F0.89972512999999998
aF-0.017277669999999998
aa(lp83
F0.91955863999999998
aF-0.01325204
aa(lp84
F0.93591067999999999
aF-0.010160560000000001
aa(lp85
F0.95027567000000002
aF-0.0076132200000000004
aa(lp86
F0.96416977999999998
aF-0.0052984
aa(lp87
F0.97530201999999999
aF-0.0035489499999999999
aa(lp88
F0.98552269999999997
aF-0.0020248599999999999
aa(lp89
F1
aF0
aasS'methode'
p90
(S'cubic'
p91
((I2
I0
I0
tp92
(I1
I0
I-5
tp93
ttp94
sS'role'
p95
S'NSplineSimple'
p96
sS'name'
p97
S'SPLINE01'
p98
sS'classename'
p99
g96
sS'nbpd'
p100
I1000
sS'nbpe'
p101
I30
sS'mode'
p102
S'courbure'
p103
s.