(dp1
S'cpoints'
p2
(lp3
(lp4
F1
aF0
aa(lp5
F0.85130974834912632
aF0.025605565679290777
aa(lp6
F0.61617130000000009
aF0.064504179999999994
aa(lp7
F0.42472191000000004
aF0.094581160000000011
aa(lp8
F0.23875070999999998
aF0.112195
aa(lp9
F0.15604332966908968
aF0.10694089195468501
aa(lp10
F0.073679960000000003
aF0.084080539999999995
aa(lp11
F0.024471739999999999
aF0.051373639999999998
aa(lp12
F0.0060191621332806242
aF0.025855054266561251
aa(lp13
F0
aF0
aa(lp14
F0.0053646234320709231
aF-0.014461115381239044
aa(lp15
F0.033704545975503548
aF-0.025354002415433452
aa(lp16
F0.058080452881698788
aF-0.047198099237521905
aa(lp17
F0.067779438562828531
aF-0.05256672012983811
aa(lp18
F0.082815136525875674
aF-0.059481872415433457
aa(lp19
F0.097679290000000002
aF-0.062573429999999999
aa(lp20
F0.12114134389833628
aF-0.06483004292375219
aa(lp21
F0.23029947013903293
aF-0.071243720978261982
aa(lp22
F0.36949205574817867
aF-0.077368333039720044
aa(lp23
F0.46493939000000001
aF-0.075020550000000005
aa(lp24
F0.58271987999999997
aF-0.070590200000000006
aa(lp25
F0.82424611445238627
aF-0.034856205211186465
aa(lp26
F0.91955864000000009
aF-0.013252040000000001
aa(lp27
F1
aF0
aasS'methode'
p28
(S'cubic'
p29
((I2
I0
I0
tp30
(I1
I0
I-5
tp31
ttp32
sS'role'
p33
S'NSplineSimple'
p34
sS'name'
p35
S'SPLINE01'
p36
sS'classename'
p37
g34
sS'nbpd'
p38
I1000
sS'nbpe'
p39
I30
sS'mode'
p40
S'courbure'
p41
s.