(dp1
S'cpoints'
p2
(lp3
(lp4
F1
aF0
aa(lp5
F0.39714787967265863
aF0.082219297121795876
aa(lp6
F0.31779561032935533
aF0.094545958629751681
aa(lp7
F0.23000000000000001
aF0.16
aa(lp8
F0.20603946285586971
aF0.10610987731480748
aa(lp9
F0.083045436965747399
aF0.087008044678285046
aa(lp10
F0.025565319296319444
aF0.049897895999237107
aa(lp11
F0.0065298572806256061
aF0.024805419010618834
aa(lp12
F0
aF0
aa(lp13
F0.0016531412169200621
aF-0.0077216476462353967
aa(lp14
F0.01266043256552507
aF-0.018832816614164472
aa(lp15
F0.032909119500772022
aF-0.027002443347655003
aa(lp16
F0.05704570379818108
aF-0.048261681731801787
aa(lp17
F0.068661573230698991
aF-0.054764254319366046
aa(lp18
F0.092772030989223708
aF-0.063532507135747096
aa(lp19
F0.12889124153880971
aF-0.073788474825633443
aa(lp20
F0.23460015767223297
aF-0.085999140777829552
aa(lp21
F0.37292623398481339
aF-0.086031755180584923
aa(lp22
F0.52735958000191374
aF-0.070946690431242132
aa(lp23
F0.68125600870179426
aF-0.050844056342810973
aa(lp24
F1
aF0
aasS'methode'
p25
(lp26
(S'cubic'
p27
((I2
cnumpy.core.multiarray
scalar
p28
(cnumpy
dtype
p29
(S'f8'
I0
I1
tRp30
(I3
S'<'
NNNI-1
I-1
I0
tbS'\x00\x00\x00\x00\x00\x00\x00\x00'
tRp31
g28
(g30
S'\x00\x00\x00\x00\x00\x00\x00\x00'
tRp32
t(I1
g28
(g30
S'\xf5\xff\xff\xff\xff\xff\xc3<'
tRp33
g28
(g30
S'\xee\xff\xff\xff\xff\xff\xdf\xbf'
tRp34
tttp35
a(g27
((I1
g28
(g30
S'\xf5\xff\xff\xff\xff\xff\xb3<'
tRp36
g28
(g30
S'\xee\xff\xff\xff\xff\xff\xcf\xbf'
tRp37
t(I2
g28
(g30
S'\x00\x00\x00\x00\x00\x00\x00\x00'
tRp38
g28
(g30
S'\x00\x00\x00\x00\x00\x00\x00\x00'
tRp39
tttp40
asS'role'
p41
S'Profil'
p42
sS'name'
p43
g42
sS'classename'
p44
g42
sS'pouverture'
p45
(F-1
F-5
tp46
sS'nbpe'
p47
(lp48
I38
aI49
asS'ruptures'
p49
(lp50
I0
aI8
aI20
asS'precision'
p51
(lp52
I1000
aI1000
asS'mode'
p53
(lp54
S'courbure'
p55
ag55
as.