(dp1
S'cpoints'
p2
(lp3
(lp4
F1
aF0
aa(lp5
F0.97580756721438888
aF0.005965960480793342
aa(lp6
F0.94608185972433034
aF0.013014130031208992
aa(lp7
F0.90542295088481239
aF0.022172581469064312
aa(lp8
F0.85477633683781562
aF0.032838929004952888
aa(lp9
F0.79533577202101924
aF0.044354725048393107
aa(lp10
F0.72852069487333893
aF0.056045007351059439
aa(lp11
F0.65594611407972536
aF0.067238819388890647
aa(lp12
F0.57938635958100804
aF0.07727659056847358
aa(lp13
F0.55000000000001137
aF0.10000000000000853
aa(lp14
F0.50073414221176904
aF0.085517243503190343
aa(lp15
F0.42195554132737811
aF0.091358720800243987
aa(lp16
F0.34447711270337322
aF0.094067647262960463
aa(lp17
F0.27063109023988829
aF0.092747763600215194
aa(lp18
F0.20261462998695379
aF0.087355924302684684
aa(lp19
F0.14224900725844236
aF0.078184241259478426
aa(lp20
F0.091122189244572382
aF0.065804286017637992
aa(lp21
F0.050531032780696705
aF0.050990653282013909
aa(lp22
F0.021446397984973942
aF0.034597255604239763
aa(lp23
F0.0045018828932938959
aF0.017408828071253879
aa(lp24
F0
aF0
aa(lp25
F0.0078097765115785478
aF-0.016187135690586274
aa(lp26
F0.027497085719886627
aF-0.029852623771063236
aa(lp27
F0.058462443030947497
aF-0.040833779311427065
aa(lp28
F0.099860816380498818
aF-0.048985642232466375
aa(lp29
F0.15064421155503283
aF-0.054256571729808911
aa(lp30
F0.20960011772058351
aF-0.05675451192114167
aa(lp31
F0.27537841002057917
aF-0.056779711972566815
aa(lp32
F0.34650589292169798
aF-0.054810441329351534
aa(lp33
F0.42160999363238716
aF-0.051411441795679025
aa(lp34
F0.49926585778824517
aF-0.046628354614298928
aa(lp35
F0.5770481054592409
aF-0.040805633009256326
aa(lp36
F0.65307088029523186
aF-0.034435994404503845
aa(lp37
F0.72546980486620782
aF-0.02792566217742376
aa(lp38
F0.79244948027147188
aF-0.021593769596421453
aa(lp39
F0.85233044434875183
aF-0.015695671018121971
aa(lp40
F0.90359404349014483
aF-0.010453561883977613
aa(lp41
F0.94492466446405388
aF-0.0060778865817923133
aa(lp42
F0.97524894908076476
aF-0.0027696022503818085
aa(lp43
F0.99377082619841417
aF-0.00070328242597383905
aa(lp44
F1
aF0
aasS'methode'
p45
(lp46
(S'cubic'
p47
((I2
cnumpy.core.multiarray
scalar
p48
(cnumpy
dtype
p49
(S'f8'
I0
I1
tRp50
(I3
S'<'
NNNI-1
I-1
I0
tbS'\x00\x00\x00\x00\x00\x00\x00\x00'
tRp51
g48
(g50
S'\x00\x00\x00\x00\x00\x00\x00\x00'
tRp52
t(I1
g48
(g50
S'\x08\x00\x00\x00\x00\x00\xca\xbc'
tRp53
g48
(g50
S'\x05\x00\x00\x00\x00\x00\xf0\xbf'
tRp54
tttp55
a(g47
((I1
g48
(g50
S'\x08\x00\x00\x00\x00\x00\xca\xbc'
tRp56
g48
(g50
S'\x05\x00\x00\x00\x00\x00\xf0\xbf'
tRp57
t(I2
g48
(g50
S'\x00\x00\x00\x00\x00\x00\x00\x00'
tRp58
g48
(g50
S'\x00\x00\x00\x00\x00\x00\x00\x00'
tRp59
tttp60
asS'role'
p61
S'Profil'
p62
sS'name'
p63
S'naca24152x,2x'
p64
sS'classename'
p65
g62
sS'pouverture'
p66
(F-1
F-10
tp67
sS'nbpd'
p68
(lp69
I1000
aI1000
asS'nbpe'
p70
(lp71
I38
aI49
asS'ruptures'
p72
(lp73
I0
aI20
aI40
asS'mode'
p74
(lp75
S'courbure'
p76
ag76
as.