(dp1
S'name'
p2
S'SPLINE01'
p3
sS'classename'
p4
S'NSplineSimple'
p5
sS'cpoints'
p6
(lp7
(lp8
F1
aF0
aa(lp9
F0.99839818549600001
aF0.000238344555601
aa(lp10
F0.99360268681099995
aF0.00095247519619300004
aa(lp11
F0.98564327374300009
aF0.00213967029383
aa(lp12
F0.9745693532980001
aF0.0037953243535699998
aa(lp13
F0.96044965662100001
aF0.0059128517940600003
aa(lp14
F0.94337180392999997
aF0.0084835608840800013
aa(lp15
F0.9234417502540001
aF0.011496507828500001
aa(lp16
F0.90078311573100001
aF0.014938341902700001
aa(lp17
F0.87553640501999996
aF0.018793153676900001
aa(lp18
F0.84785812109099989
aF0.023042338854800001
aa(lp19
F0.81791977935000004
aF0.027664490055100001
aa(lp20
F0.78590682870400008
aF0.032635327983700002
aa(lp21
F0.75201748675000002
aF0.037927681947199997
aa(lp22
F0.716461496802
aF0.043511527601200001
aa(lp23
F0.67945886393699995
aF0.049354102774500003
aa(lp24
F0.64125302019399999
aF0.055500534994999996
aa(lp25
F0.60209325201100006
aF0.062100397956200003
aa(lp26
F0.56217926896900006
aF0.068676493156299992
aa(lp27
F0.52170617247499995
aF0.075024011978100005
aa(lp28
F0.48092846681500001
aF0.081082695264500002
aa(lp29
F0.440104876654
aF0.086781900636699993
aa(lp30
F0.399487497769
aF0.092054911576699996
aa(lp31
F0.35931089849700004
aF0.096789198721400002
aa(lp32
F0.31980313968200003
aF0.100769576978
aa(lp33
F0.28121298782100002
aF0.103921272974
aa(lp34
F0.24378426912199999
aF0.10538029488799999
aa(lp35
F0.20780496306900001
aF0.10549762411499999
aa(lp36
F0.17354960096200001
aF0.10398448789299999
aa(lp37
F0.14133824431600001
aF0.1004094308
aa(lp38
F0.11170294970700001
aF0.094201121790499998
aa(lp39
F0.08511857122920001
aF0.085438714543400004
aa(lp40
F0.061928955172300001
aF0.074765616656200004
aa(lp41
F0.042830910752699999
aF0.0621428307358
aa(lp42
F0.0277466694954
aF0.048788335769100001
aa(lp43
F0.016253836115399999
aF0.035901059861900002
aa(lp44
F0.0081500624471299993
aF0.0241536965413
aa(lp45
F0.00331059416806
aF0.0140718721112
aa(lp46
F0.00095172667612500002
aF0.0064090659441499997
aa(lp47
F6.8330666826500001e-05
aF0.0016170379317500001
aa(lp48
F0
aF0
aa(lp49
F0.00115495059227
aF-0.0067379220474799995
aa(lp50
F0.0055375583265100002
aF-0.0119701431121
aa(lp51
F0.011393524545800001
aF-0.015576450337800002
aa(lp52
F0.0178761687614
aF-0.017879524730700001
aa(lp53
F0.024502781408800002
aF-0.0197061832568
aa(lp54
F0.031248898104
aF-0.021094858784500001
aa(lp55
F0.046878202467700004
aF-0.0332692550749
aa(lp56
F0.048057930358499999
aF-0.034434127067800004
aa(lp57
F0.051783982783600004
aF-0.037648459712900005
aa(lp58
F0.0586068625525
aF-0.042055307732599995
aa(lp59
F0.069122790788100005
aF-0.046195555149500002
aa(lp60
F0.083223457249100005
aF-0.049204063712100003
aa(lp61
F0.10041027087900001
aF-0.052260943680700001
aa(lp62
F0.120515619027
aF-0.055279795893799999
aa(lp63
F0.143435145076
aF-0.058094394277900002
aa(lp64
F0.16902125108500002
aF-0.060307725076200004
aa(lp65
F0.19704523987000003
aF-0.061936098968700004
aa(lp66
F0.22731809268199998
aF-0.062875175367999997
aa(lp67
F0.25963947301899998
aF-0.063103257586800007
aa(lp68
F0.29376800971200001
aF-0.062991821166300005
aa(lp69
F0.32943917556000002
aF-0.062379861269000005
aa(lp70
F0.36640698126399995
aF-0.060931547381100001
aa(lp71
F0.40441663633500002
aF-0.058738245163899999
aa(lp72
F0.44320654558100003
aF-0.056020114053400002
aa(lp73
F0.48251026440300004
aF-0.052988840557600003
aa(lp74
F0.52205846971799996
aF-0.049715726092799999
aa(lp75
F0.56158073307300005
aF-0.046231027183100001
aa(lp76
F0.60080734665400004
aF-0.042556063470199995
aa(lp77
F0.63947118839899997
aF-0.0386691299754
aa(lp78
F0.67731807391299992
aF-0.034584997448800003
aa(lp79
F0.71410588865700009
aF-0.030537077821800002
aa(lp80
F0.7495835062170001
aF-0.0266667834702
aa(lp81
F0.78350847857600003
aF-0.0229956126926
aa(lp82
F0.81564896168400003
aF-0.019532668671100002
aa(lp83
F0.84578528039299994
aF-0.016299425782999998
aa(lp84
F0.87371144369099996
aF-0.0133169007386
aa(lp85
F0.89923655740499997
aF-0.010603219903500001
aa(lp86
F0.9221861319900001
aF-0.0081732953508999989
aa(lp87
F0.9424032766960001
aF-0.0060402181488300004
aa(lp88
F0.95974977443700005
aF-0.0042154710790400004
aa(lp89
F0.97410702909600011
aF-0.0027088799841800001
aa(lp90
F0.98537687848600009
aF-0.0015285652923000001
aa(lp91
F0.99348226732699996
aF-0.000680896805333
aa(lp92
F0.99836777558300005
aF-0.000170454777286
aa(lp93
F1
aF0
aasS'methode'
p94
(S'cubic'
p95
((I2
I0
I0
tp96
(I1
I0
I-5
tp97
ttp98
sS'role'
p99
g5
sS'nbpd'
p100
I1000
s.