(dp1
S'points'
p2
(lp3
(lp4
F0.27552797903108656
aF0.23419969606456739
aa(lp5
F0.31343549735083953
aF0.23569827417369479
aa(lp6
F0.34966049479893968
aF0.22928383821114359
aa(lp7
F0.35445470044159549
aF0.22840007759853337
aa(lp8
F0.35753176946436094
aF0.2293808466052375
aa(lp9
F0.35873989557064723
aF0.233776036219289
aa(lp10
F0.3571782278563943
aF0.22935218835988566
aa(lp11
F0.35447494619982817
aF0.22844174150604932
aa(lp12
F0.35244746732602572
aF0.22556866236471104
aa(lp13
F0.34124201152009265
aF0.23067850489469019
aa(lp14
F0.33406701523035714
aF0.24133527543115432
aa(lp15
F0.33818096419710753
aF0.24879971711899534
aa(lp16
F0.35373335886418272
aF0.2483773172264829
aa(lp17
F0.36141888269515215
aF0.24337432482508117
aa(lp18
F0.36003880559670148
aF0.24014819602022736
aa(lp19
F0.36109589717287294
aF0.23759356921932501
aa(lp20
F0.35901412047572168
aF0.23371707739028574
aa(lp21
F0.36120065919554539
aF0.23789047994917345
aa(lp22
F0.36051968388172967
aF0.24095390311487913
aa(lp23
F0.35669142030993306
aF0.24445683020273995
aa(lp24
F0.33968546203162692
aF0.25899035750413407
aa(lp25
F0.32271206155305665
aF0.25939699524489279
aa(lp26
F0.29574890349951943
aF0.25438062843960213
aa(lp27
F0.29368141928714436
aF0.25292741020162413
aa(lp28
F0.29191642634304305
aF0.25046432070748115
aa(lp29
F0.29037409256527968
aF0.2527656015392763
aa(lp30
F0.28117799638824903
aF0.24918839530701509
aa(lp31
F0.26162316604787617
aF0.23864431450523801
aa(lp32
F0.26247815749427533
aF0.23335659160765199
aa(lp33
F0.27552797903108656
aF0.23419969606456739
aasS'name'
p34
Vblocjonc.spl
p35
s.