(dp1
S'cpoints'
p2
(lp3
(lp4
F0.91681599999999996
aF0.13020300000000001
aa(lp5
F0.87769200000000003
aF0.12770899999999999
aa(lp6
F0.85396899999999998
aF0.126086
aa(lp7
F0.82489900000000005
aF0.12398199999999999
aa(lp8
F0.79111500000000001
aF0.121378
aa(lp9
F0.75388699999999997
aF0.118311
aa(lp10
F0.702237
aF0.11371299999999999
aa(lp11
F0.654034
aF0.10906
aa(lp12
F0.59770599999999996
aF0.10317999999999999
aa(lp13
F0.54313100000000003
aF0.097026399999999999
aa(lp14
F0.48714400000000002
aF0.090155100000000002
aa(lp15
F0.43130499999999999
aF0.082907499999999995
aa(lp16
F0.361597
aF0.073310200000000006
aa(lp17
F0.29297899999999999
aF0.063037200000000002
aa(lp18
F0.21931500000000001
aF0.051204
aa(lp19
F0.111744
aF0.032641799999999999
aa(lp20
F0.019352000000000001
aF0.019898300000000001
aa(lp21
F-0.073765600000000001
aF0.0074699199999999997
aa(lp22
F-0.17450499999999999
aF-0.0043272700000000002
aa(lp23
F-0.273893
aF-0.01436
aa(lp24
F-0.38201299999999999
aF-0.023743899999999998
aa(lp25
F-0.48594100000000001
aF-0.030466400000000001
aa(lp26
F-0.58741699999999997
aF-0.035634100000000002
aa(lp27
F-0.66664699999999999
aF-0.038838999999999999
aa(lp28
F-0.80641099999999999
aF-0.0412644
aa(lp29
F-0.88046199999999997
aF-0.041369099999999999
aa(lp30
F-0.97221900000000006
aF-0.040363099999999999
aa(lp31
F-1.0709
aF-0.036485799999999999
aa(lp32
F-1.1587799999999999
aF-0.0329512
aa(lp33
F-1.2383999999999999
aF-0.029761699999999999
aa(lp34
F-1.3195399999999999
aF-0.025051199999999999
aa(lp35
F-1.3865700000000001
aF-0.020689099999999998
aa(lp36
F-1.4462999999999999
aF-0.0152865
aa(lp37
F-1.4888399999999999
aF-0.0091793799999999991
aa(lp38
F-1.52162
aF-0.0015763400000000001
aa(lp39
F-1.5365500000000001
aF0.00334725
aa(lp40
F-1.5481499999999999
aF0.0078129700000000007
aa(lp41
F-1.5588500000000001
aF0.0131051
aa(lp42
F-1.5678799999999999
aF0.018414
aa(lp43
F-1.6613199999999999
aF0.072868100000000005
aa(lp44
F-1.67133
aF0.079328399999999993
aa(lp45
F-1.6819
aF0.086407899999999996
aa(lp46
F-1.69167
aF0.095558799999999999
aa(lp47
F-1.69784
aF0.106943
aa(lp48
F-1.7011099999999999
aF0.118021
aa(lp49
F-1.7026600000000001
aF0.13020300000000001
aa(lp50
F-1.69862
aF0.16453200000000001
aa(lp51
F-1.6865300000000001
aF0.19864100000000001
aa(lp52
F-1.6664699999999999
aF0.232209
aa(lp53
F-1.63855
aF0.26476499999999997
aa(lp54
F-1.6029599999999999
aF0.295736
aa(lp55
F-1.5599099999999999
aF0.32449800000000001
aa(lp56
F-1.50966
aF0.35043299999999999
aa(lp57
F-1.45252
aF0.37298300000000001
aa(lp58
F-1.3888499999999999
aF0.39169199999999998
aa(lp59
F-1.31904
aF0.40624399999999999
aa(lp60
F-1.24353
aF0.41647499999999998
aa(lp61
F-1.16276
aF0.422373
aa(lp62
F-1.0772600000000001
aF0.42407299999999998
aa(lp63
F-0.98752899999999999
aF0.42183199999999998
aa(lp64
F-0.89413600000000004
aF0.41600399999999998
aa(lp65
F-0.79726200000000003
aF0.40573799999999999
aa(lp66
F-0.69906299999999999
aF0.39363300000000001
aa(lp67
F-0.59011000000000002
aF0.37793700000000002
aa(lp68
F-0.49573200000000001
aF0.36338999999999999
aa(lp69
F-0.391453
aF0.34716599999999997
aa(lp70
F-0.28863699999999998
aF0.33101599999999998
aa(lp71
F-0.18604100000000001
aF0.31474800000000003
aa(lp72
F-0.088613399999999995
aF0.29915700000000001
aa(lp73
F0.0097800600000000001
aF0.283273
aa(lp74
F0.108763
aF0.26715100000000003
aa(lp75
F0.202653
aF0.25172699999999998
aa(lp76
F0.29288700000000001
aF0.23678299999999999
aa(lp77
F0.37698599999999999
aF0.222748
aa(lp78
F0.45697300000000002
aF0.20930399999999999
aa(lp79
F0.53215599999999996
aF0.19658200000000001
aa(lp80
F0.58848900000000004
aF0.18699099999999999
aa(lp81
F0.63608500000000001
aF0.17884800000000001
aa(lp82
F0.675597
aF0.17206299999999999
aa(lp83
F0.71974899999999997
aF0.16456599999999999
aa(lp84
F0.75892300000000001
aF0.157781
aa(lp85
F0.79427700000000001
aF0.15162200000000001
aa(lp86
F0.827407
aF0.145839
aa(lp87
F0.85492299999999999
aF0.14103099999999999
aa(lp88
F0.87743000000000004
aF0.13709499999999999
aa(lp89
F0.91681599999999996
aF0.13020300000000001
aasS'methode'
p90
(S'cubic'
p91
((I2
I0
I0
tp92
(I1
I0
I-5
tp93
ttp94
sS'role'
p95
S'NSplineSimple'
p96
sS'name'
p97
S'SPLINE01'
p98
sS'classename'
p99
g96
sS'nbpd'
p100
I1000
sS'nbpe'
p101
I30
sS'mode'
p102
S'courbure'
p103
s.