(dp1
S'cpoints'
p2
(lp3
(lp4
F1
aF0
aa(lp5
F0.81434029252067508
aF0.028164046766749377
aa(lp6
F0.60209325201100006
aF0.062100397956200003
aa(lp7
F0.399487497769
aF0.092054911576699996
aa(lp8
F0.20780496306900001
aF0.10549762411499999
aa(lp9
F0.12147961668179436
aF0.096578225578009838
aa(lp10
F0.048554435390237224
aF0.06654849958843076
aa(lp11
F0.019604842661964633
aF0.040022245279281922
aa(lp12
F0
aF0
aa(lp13
F0.00115495059227
aF-0.0067379220474799995
aa(lp14
F0.0055375583265100002
aF-0.0119701431121
aa(lp15
F0.017549984365847558
aF-0.017865253546072369
aa(lp16
F0.024502781408800002
aF-0.0197061832568
aa(lp17
F0.031248898104
aF-0.021094858784500001
aa(lp18
F0.051783982783600004
aF-0.037648459712900005
aa(lp19
F0.069122790788100005
aF-0.046195555149500002
aa(lp20
F0.089326267730361827
aF-0.050443068835969038
aa(lp21
F0.120515619027
aF-0.055279795893799999
aa(lp22
F0.19704523987000003
aF-0.061936098968700004
aa(lp23
F0.26598209838299508
aF-0.063053836044961287
aa(lp24
F0.32943917556000002
aF-0.062379861269000005
aa(lp25
F0.47805316694754818
aF-0.053385581184733896
aa(lp26
F0.59197043073544497
aF-0.043296967417540091
aa(lp27
F0.67731807391299992
aF-0.034584997448800003
aa(lp28
F0.84555194136293099
aF-0.016288907644948333
aa(lp29
F1
aF0
aasS'methode'
p30
(S'cubic'
p31
((I2
I0
I0
tp32
(I1
I0
I-5
tp33
ttp34
sS'role'
p35
S'NSplineSimple'
p36
sS'name'
p37
S'SPLINE01'
p38
sS'classename'
p39
g36
sS'nbpd'
p40
I1000
sS'nbpe'
p41
I30
sS'mode'
p42
S'courbure'
p43
s.