(dp1
S'cpoints'
p2
(lp3
(lp4
F1
aF-2.0770576047781002e-17
aa(lp5
F0.99902526122304391
aF0.00024447070582361808
aa(lp6
F0.99610456755174714
aF0.00097491790020144469
aa(lp7
F0.99124848439863456
aF0.002182517569917347
aa(lp8
F0.9844746115720554
aF0.0038527951077411936
aa(lp9
F0.97580756721438866
aF0.005965960480785089
aa(lp10
F0.96527896104627309
aF0.0084973524367031178
aa(lp11
F0.95292735313131161
aF0.011417968708832087
aa(lp12
F0.93879819393057817
aF0.014695055295843886
aa(lp13
F0.92294374135903823
aF0.018292725781879821
aa(lp14
F0.90542295088481117
aF0.022172581469055874
aa(lp15
F0.88630133538689659
aF0.026294304827804826
aa(lp16
F0.86565079243334597
aF0.030616202314509636
aa(lp17
F0.84354939775943405
aF0.035095677720060954
aa(lp18
F0.82008116489790084
aF0.039689623548691912
aa(lp19
F0.7953357720210168
aF0.044354725048383031
aa(lp20
F0.76940825798635015
aF0.049047678928182889
aa(lp21
F0.74239869024490279
aF0.053725335983204288
aa(lp22
F0.71441180761259648
aF0.058344783291939969
aa(lp23
F0.68555664090208701
aF0.062863386882494224
aa(lp24
F0.65594611407971704
aF0.067238819388882834
aa(lp25
F0.62569662800887083
aF0.071429098943240649
aa(lp26
F0.59492762805578636
aF0.07539266520691032
aa(lp27
F0.56376115598054022
aF0.079088516003839676
aa(lp28
F0.53232138573971277
aF0.082476423597760695
aa(lp29
F0.50073414221176415
aF0.085517243503189691
aa(lp30
F0.46912640152952795
aF0.088173321216878486
aa(lp31
F0.43762577174678796
aF0.090408993880310151
aa(lp32
F0.40635995302025746
aF0.092191175186492544
aa(lp33
F0.37520758517313091
aF0.093447752626511171
aa(lp34
F0.34447711270336262
aF0.09406764726294789
aa(lp35
F0.31436328583304507
aF0.094034378604253066
aa(lp36
F0.28499552163457248
aF0.093341501345596711
aa(lp37
F0.25650035504296331
aF0.091990162727696903
aa(lp38
F0.22900061836079957
aF0.089989345121170766
aa(lp39
F0.20261462998694846
aF0.087355924302681381
aa(lp40
F0.17745541183380661
aF0.084114516771722658
aa(lp41
F0.15362995514225802
aF0.080297097920635635
aa(lp42
F0.13123855328297676
aF0.075942382967532487
aa(lp43
F0.11037421766936614
aF0.071094973738521111
aa(lp44
F0.091122189244563834
aF0.065804286017634273
aa(lp45
F0.073559553395910734
aF0.06012328361457947
aa(lp46
F0.057754960937290122
aF0.054107055884973623
aa(lp47
F0.043768452384408227
aF0.047811284574806448
aa(lp48
F0.031651377556609454
aF0.041290653030350566
aa(lp49
F0.021446397984969029
aF0.034597255604238583
aa(lp50
F0.013187556055761687
aF0.027779067213883922
aa(lp51
F0.0069003925568296761
aF0.020878532326839245
aa(lp52
F0.0026020935034761542
aF0.013931329162112486
aa(lp53
F0.00030164786206754337
aF0.0069653587533944116
aa(lp54
F0
aF0
aa(lp55
F0.0016716237096608977
aF-0.0067682749587650538
aa(lp56
F0.0052832051820459695
aF-0.013146685414520267
aa(lp57
F0.010812356714481603
aF-0.019126866242629891
aa(lp58
F0.018229282815607237
aF-0.02469907193703888
aa(lp59
F0.02749708571987744
aF-0.02985262377107685
aa(lp60
F0.038572136555139087
aF-0.034576510490063397
aa(lp61
F0.051404495149572196
aF-0.038860107942802521
aa(lp62
F0.065938359018846177
aF-0.042693976226970687
aa(lp63
F0.082112521102074079
aF-0.046070688338437624
aa(lp64
F0.099860816380488715
aF-0.0489856422324777
aa(lp65
F0.11911253955484449
aF-0.051437808749930286
aa(lp66
F0.13979281929561158
aF-0.053430371017288252
aa(lp67
F0.16182293892905314
aF-0.054971216537127388
aa(lp68
F0.18512059841750342
aF-0.056073250947201538
aa(lp69
F0.20960011772057818
aF-0.056754511921152467
aa(lp70
F0.23517258666020366
aF-0.057038072385287353
aa(lp71
F0.26174597085532125
aF-0.056951733532060386
aa(lp72
F0.28922518680035486
aF-0.056527519376823349
aa(lp73
F0.31751216148227701
aF-0.055800995180217007
aa(lp74
F0.34650589292169015
aF-0.054810441329357105
aa(lp75
F0.37610252766201457
aF-0.053595921696019067
aa(lp76
F0.40625873239401827
aF-0.052195598275981012
aa(lp77
F0.43704099468890822
aF-0.050563858491698026
aa(lp78
F0.46808307894115925
aF-0.048696277926073943
aa(lp79
F0.49926585778823651
aF-0.046628354614300802
aa(lp80
F0.53046913378960137
aF-0.044394725185385342
aa(lp81
F0.56157207758376493
aF-0.042028563583323207
aa(lp82
F0.59245368652993913
aF-0.039561117509414906
aa(lp83
F0.62299325915598491
aF-0.037021393800018731
aa(lp84
F0.6530708802952313
aF-0.034435994404508022
aa(lp85
F0.68256791178259202
aF-0.031829095420359957
aa(lp86
F0.71136748395247706
aF-0.029222553340597895
aa(lp87
F0.73935498385681331
aF-0.02663611576518176
aa(lp88
F0.76641853699264728
aF-0.024087708711767988
aa(lp89
F0.79244948027145745
aF-0.021593769596425175
aa(lp90
F0.8173428248507898
aF-0.019169594065542327
aa(lp91
F0.84099770816925556
aF-0.016829666125805963
aa(lp92
F0.86331783498806669
aF-0.014587944279321403
aa(lp93
F0.88421190738889377
aF-0.012458081339004275
aa(lp94
F0.90359404349013717
aF-0.010453561883985163
aa(lp95
F0.92138418414297774
aF-0.008587748448083821
aa(lp96
F0.93750848611328619
aF-0.0068738350043729274
aa(lp97
F0.95189969933470886
aF-0.0053247135938530527
aa(lp98
F0.96449752484197915
aF-0.0039527665496477855
aa(lp99
F0.97524894908076543
aF-0.0027696022503833134
aa(lp100
F0.98410854955657612
aF-0.0017857563431130034
aa(lp101
F0.99103876633005472
aF-0.0010103826597951987
aa(lp102
F0.99601013376273084
aF-0.00045095848603776012
aa(lp103
F0.99900146720522787
aF-0.00011302742883884079
aa(lp104
F1
aF2.0770576047781002e-17
aasS'methode'
p105
(S'cubic'
p106
((I2
I0
I0
tp107
(I1
I0
I-5
tp108
ttp109
sS'role'
p110
S'NSplineSimple'
p111
sS'name'
p112
S'SPLINE01'
p113
sS'classename'
p114
g111
sS'nbpd'
p115
I1000
sS'nbpe'
p116
I30
sS'mode'
p117
S'courbure'
p118
s.