(dp1
S'classename'
p2
S'Profil'
p3
sS'pouverture'
p4
(F-1
F-10
tp5
sS'methode'
p6
(lp7
(S'cubic'
p8
((I2
cnumpy.core.multiarray
scalar
p9
(cnumpy
dtype
p10
(S'f8'
I0
I1
tRp11
(I3
S'<'
NNNI-1
I-1
I0
tbS'\x00\x00\x00\x00\x00\x00\x00\x00'
tRp12
g9
(g11
S'\x00\x00\x00\x00\x00\x00\x00\x00'
tRp13
t(I1
g9
(g11
S'\x08\x00\x00\x00\x00\x00\xca\xbc'
tRp14
g9
(g11
S'\x05\x00\x00\x00\x00\x00\xf0\xbf'
tRp15
tttp16
a(g8
((I1
g9
(g11
S'\x08\x00\x00\x00\x00\x00\xca\xbc'
tRp17
g9
(g11
S'\x05\x00\x00\x00\x00\x00\xf0\xbf'
tRp18
t(I2
g9
(g11
S'\x00\x00\x00\x00\x00\x00\x00\x00'
tRp19
g9
(g11
S'\x00\x00\x00\x00\x00\x00\x00\x00'
tRp20
tttp21
asS'profparam'
p22
(dp23
S'nptprof'
p24
I86
sS'iouvext'
p25
I42
sS'nbpbf'
p26
I20
sS'pourcentbf'
p27
F15.000003141592654
sS'iba'
p28
I37
sS'iouvint'
p29
I47
ssS'name'
p30
Vsplinesimple-86pts.spl2x,2x
p31
sS'ruptures'
p32
(lp33
I0
aI40
aI85
asS'cpoints'
p34
(lp35
(lp36
F1
aF0
aa(lp37
F0.99353083790201424
aF0.00048565850138970745
aa(lp38
F0.98548333000151445
aF0.0011093298095943283
aa(lp39
F0.97429510527231855
aF0.0019961378440171984
aa(lp40
F0.96002713550832652
aF0.0031407836174395243
aa(lp41
F0.94277377392553774
aF0.0045554497536386407
aa(lp42
F0.92264421682591546
aF0.0062426229565488711
aa(lp43
F0.89976574971849743
aF0.0081996740072440844
aa(lp44
F0.87428287353571932
aF0.010422351104992345
aa(lp45
F0.54999999999999716
aF0.10000000000000853
aa(lp46
F0.84635597962230236
aF0.013024103786364094
aa(lp47
F0.81616047836237726
aF0.016164409041195427
aa(lp48
F0.78388644660329021
aF0.019766842872954271
aa(lp49
F0.74974440942715148
aF0.023853576917716168
aa(lp50
F0.71396370689430455
aF0.028455854791431534
aa(lp51
F0.67677138417469962
aF0.033584664297563904
aa(lp52
F0.63840230491929617
aF0.039242477394026309
aa(lp53
F0.59909777960400845
aF0.045422458615959727
aa(lp54
F0.55910400745847255
aF0.05210788266236932
aa(lp55
F0.51868090672840594
aF0.059283786132056093
aa(lp56
F0.47808766119376855
aF0.06695596168377449
aa(lp57
F0.43754672217882273
aF0.074822041167976749
aa(lp58
F0.39714787967265863
aF0.082219297121810087
aa(lp59
F0.35712527899416102
aF0.088776979034065562
aa(lp60
F0.31779561032935533
aF0.094545958629765892
aa(lp61
F0.27937029781584499
aF0.10007687761897444
aa(lp62
F0.2420280920138822
aF0.10389571137646669
aa(lp63
F0.20603946285586971
aF0.10610987731480748
aa(lp64
F0.17166671771001063
aF0.10519032288804908
aa(lp65
F0.1393944182930511
aF0.10183395878912904
aa(lp66
F0.10958859554598632
aF0.096045340347686192
aa(lp67
F0.083045436965747399
aF0.087008044678299257
aa(lp68
F0.060148302918932472
aF0.075546390947366149
aa(lp69
F0.040890444908114887
aF0.06311084213287188
aa(lp70
F0.025565319296319444
aF0.049897895999251318
aa(lp71
F0.01415039696239262
aF0.036985510530982424
aa(lp72
F0.0065298572806256061
aF0.024805419010618834
aa(lp73
F0.0026131057094005428
aF0.014355106619902358
aa(lp74
F0.00083802129918808532
aF0.0064835293709251118
aa(lp75
F6.2051654154515745e-05
aF0.0016276023100374459
aa(lp76
F0
aF0
aa(lp77
F0.0016531412169200621
aF-0.0077216476462211858
aa(lp78
F0.0063351668193689648
aF-0.013935099776958282
aa(lp79
F0.01266043256552507
aF-0.018832816614164472
aa(lp80
F0.019947870209520602
aF-0.022488191238224431
aa(lp81
F0.026855923964618
aF-0.025156931237219737
aa(lp82
F0.032909119500772022
aF-0.027002443347626581
aa(lp83
F0.05704570379818108
aF-0.048261681731801787
aa(lp84
F0.057853662746367718
aF-0.048853239284753158
aa(lp85
F0.061515500771179177
aF-0.051095569745612579
aa(lp86
F0.068661573230698991
aF-0.054764254319351835
aa(lp87
F0.079103167722664125
aF-0.05890806189363218
aa(lp88
F0.092772030989223708
aF-0.063532507135747096
aa(lp89
F0.1093339969009719
aF-0.068576547990062409
aa(lp90
F0.12889124153880971
aF-0.073788474825619232
aa(lp91
F0.15138529577403403
aF-0.078367519337263047
aa(lp92
F0.17666338024058348
aF-0.081920189511748731
aa(lp93
F0.20450754898787693
aF-0.084219713652402106
aa(lp94
F0.23460015767223297
aF-0.085999140777829552
aa(lp95
F0.26672400909332339
aF-0.087234831900772747
aa(lp96
F0.30066005978133603
aF-0.08774287352373733
aa(lp97
F0.33615817087776634
aF-0.087368485949596675
aa(lp98
F0.37292623398481339
aF-0.086031755180570713
aa(lp99
F0.41070586590714697
aF-0.083708194913171496
aa(lp100
F0.44921697827423657
aF-0.08019254768227313
aa(lp101
F0.4881881796840446
aF-0.075658139594139584
aa(lp102
F0.52735958000191374
aF-0.070946690431227921
aa(lp103
F0.5665241300961128
aF-0.066168631362828023
aa(lp104
F0.60542383949702128
aF-0.06122836995002956
aa(lp105
F0.64375664290511736
aF-0.056100692778372263
aa(lp106
F0.68125600870179426
aF-0.050844056342810973
aa(lp107
F0.71766863936599634
aF-0.045524368777492441
aa(lp108
F0.75275053860445951
aF-0.040209192616359246
aa(lp109
F0.78627424115433087
aF-0.034955063125892138
aa(lp110
F0.81801541736865602
aF-0.029809165484081745
aa(lp111
F0.84776036294161372
aF-0.024819835597313045
aa(lp112
F0.87530927101742861
aF-0.020078503484114663
aa(lp113
F0.90048200631891007
aF-0.015838544600384807
aa(lp114
F0.92312616090192989
aF-0.012166875913152353
aa(lp115
F0.94308499398282208
aF-0.0090011791727278023
aa(lp116
F0.96021779394401108
aF-0.0063070402149065785
aa(lp117
F0.97440366850030102
aF-0.0040750059125542748
aa(lp118
F0.9855424492748881
aF-0.0023123503286086589
aa(lp119
F0.99355544079618596
aF-0.0010349276633689897
aa(lp120
F0.99838600851958859
aF-0.00025989738783493976
aa(lp121
F1
aF0
aasS'role'
p122
g3
sS'mode'
p123
(lp124
S'cos'
p125
ag125
asS'nbpd'
p126
(lp127
I1000
aI1000
asS'nbpe'
p128
(lp129
I38
aI49
as.