(dp1
S'points'
p2
(lp3
(lp4
F1
aF0
aa(lp5
F1.0001783157432527
aF0.00060524492708743959
aa(lp6
F1.0001346625421721
aF0.0011595549093904197
aa(lp7
F0.99984607877755372
aF0.0017769851497157637
aa(lp8
F0.99904124304222142
aF0.0026112119516634117
aa(lp9
F0.99666298373627638
aF0.003970534682763995
aa(lp10
F0.98768224873209731
aF0.0066850850804115979
aa(lp11
F0.93384706645432636
aF0.013931819740510875
aa(lp12
F0.62927872402970364
aF0.040379714012642252
aa(lp13
F0.4443941791674248
aF0.073382634609782463
aa(lp14
F0.27143371304825031
aF0.10090947377563941
aa(lp15
F0.18402145102284775
aF0.10612791066334776
aa(lp16
F0.12021397542085849
aF0.098664118675481791
aa(lp17
F0.069712286921937733
aF0.080972031078506035
aa(lp18
F0.030922343114969872
aF0.054970272786450232
aa(lp19
F0.0071449972158034291
aF0.025952571379895446
aa(lp20
F-4.8908639485741121e-05
aF0.0015031700727606214
aa(lp21
F0.0057506166556636354
aF-0.013700103728714162
aa(lp22
F0.029661678737776156
aF-0.025438172593545361
aa(lp23
F0.053199764595224748
aF-0.045104679565702716
aa(lp24
F0.083187834678037281
aF-0.060399334287048308
aa(lp25
F0.15554545151343702
aF-0.079018747804474224
aa(lp26
F0.26035658268839212
aF-0.086947798597673459
aa(lp27
F0.39199929501861619
aF-0.084907039329417386
aa(lp28
F0.62104345265123417
aF-0.058654666052468767
aa(lp29
F0.9514295533000654
aF-0.014119043616040357
aa(lp30
F0.99051570893796836
aF-0.0051501374790198437
aa(lp31
F0.99755427768946581
aF-0.0021874517173334149
aa(lp32
F0.99940451382028239
aF-0.00081318649462291601
aa(lp33
F1
aF0
aasS'name'
p34
VP0.spl
p35
s.